target datalayout = "e-m:e-p270:32:32-p271:32:32-p272:64:64-i64:64-i128:128-f80:128-n8:16:32:64-S128"
target triple = "x86_64-pc-linux-gnu"

%struct._spdu_signal_value_name = type { i32, i32, i32, ptr, ptr }
%struct._spdu_signal_value_name_item = type { i64, i64, ptr }
%struct._val64_string = type { i64, ptr }

; Function Attrs: null_pointer_is_valid sspstrong uwtable
define internal void @destroy_notify_signal_value_names(ptr noundef %0) #0 {
  %2 = alloca ptr, align 8
  %3 = alloca ptr, align 8
  %4 = alloca i32, align 4
  store ptr %0, ptr %2, align 8
  call void @llvm.lifetime.start.p0(i64 8, ptr %3) #14
  %5 = load ptr, ptr %2, align 8
  store ptr %5, ptr %3, align 8
  call void @llvm.lifetime.start.p0(i64 4, ptr %4) #14
  store i32 0, ptr %4, align 4
  br label %6

6:                                                ; preds = %66, %1
  %7 = load i32, ptr %4, align 4
  %8 = load ptr, ptr %3, align 8
  %9 = getelementptr inbounds nuw %struct._spdu_signal_value_name, ptr %8, i32 0, i32 1
  %10 = load i32, ptr %9, align 4
  %11 = icmp ult i32 %7, %10
  br i1 %11, label %13, label %12

12:                                               ; preds = %6
  call void @llvm.lifetime.end.p0(i64 4, ptr %4) #14
  br label %69

13:                                               ; preds = %6
  %14 = load ptr, ptr %3, align 8
  %15 = getelementptr inbounds nuw %struct._spdu_signal_value_name, ptr %14, i32 0, i32 4
  %16 = load ptr, ptr %15, align 8
  %17 = load i32, ptr %4, align 4
  %18 = zext i32 %17 to i64
  %19 = getelementptr %struct._spdu_signal_value_name_item, ptr %16, i64 %18
  %20 = getelementptr inbounds nuw %struct._spdu_signal_value_name_item, ptr %19, i32 0, i32 2
  %21 = load ptr, ptr %20, align 8
  %22 = icmp ne ptr %21, null
  br i1 %22, label %23, label %39

23:                                               ; preds = %13
  %24 = load ptr, ptr %3, align 8
  %25 = getelementptr inbounds nuw %struct._spdu_signal_value_name, ptr %24, i32 0, i32 4
  %26 = load ptr, ptr %25, align 8
  %27 = load i32, ptr %4, align 4
  %28 = zext i32 %27 to i64
  %29 = getelementptr %struct._spdu_signal_value_name_item, ptr %26, i64 %28
  %30 = getelementptr inbounds nuw %struct._spdu_signal_value_name_item, ptr %29, i32 0, i32 2
  %31 = load ptr, ptr %30, align 8
  call void @g_free(ptr noundef %31)
  %32 = load ptr, ptr %3, align 8
  %33 = getelementptr inbounds nuw %struct._spdu_signal_value_name, ptr %32, i32 0, i32 4
  %34 = load ptr, ptr %33, align 8
  %35 = load i32, ptr %4, align 4
  %36 = zext i32 %35 to i64
  %37 = getelementptr %struct._spdu_signal_value_name_item, ptr %34, i64 %36
  %38 = getelementptr inbounds nuw %struct._spdu_signal_value_name_item, ptr %37, i32 0, i32 2
  store ptr null, ptr %38, align 8
  br label %39

39:                                               ; preds = %23, %13
  %40 = load ptr, ptr %3, align 8
  %41 = getelementptr inbounds nuw %struct._spdu_signal_value_name, ptr %40, i32 0, i32 3
  %42 = load ptr, ptr %41, align 8
  %43 = load i32, ptr %4, align 4
  %44 = zext i32 %43 to i64
  %45 = getelementptr %struct._val64_string, ptr %42, i64 %44
  %46 = getelementptr inbounds nuw %struct._val64_string, ptr %45, i32 0, i32 1
  %47 = load ptr, ptr %46, align 8
  %48 = icmp ne ptr %47, null
  br i1 %48, label %49, label %65

49:                                               ; preds = %39
  %50 = load ptr, ptr %3, align 8
  %51 = getelementptr inbounds nuw %struct._spdu_signal_value_name, ptr %50, i32 0, i32 3
  %52 = load ptr, ptr %51, align 8
  %53 = load i32, ptr %4, align 4
  %54 = zext i32 %53 to i64
  %55 = getelementptr %struct._val64_string, ptr %52, i64 %54
  %56 = getelementptr inbounds nuw %struct._val64_string, ptr %55, i32 0, i32 1
  %57 = load ptr, ptr %56, align 8
  call void @g_free(ptr noundef %57)
  %58 = load ptr, ptr %3, align 8
  %59 = getelementptr inbounds nuw %struct._spdu_signal_value_name, ptr %58, i32 0, i32 3
  %60 = load ptr, ptr %59, align 8
  %61 = load i32, ptr %4, align 4
  %62 = zext i32 %61 to i64
  %63 = getelementptr %struct._val64_string, ptr %60, i64 %62
  %64 = getelementptr inbounds nuw %struct._val64_string, ptr %63, i32 0, i32 1
  store ptr null, ptr %64, align 8
  br label %65

65:                                               ; preds = %49, %39
  br label %66

66:                                               ; preds = %65
  %67 = load i32, ptr %4, align 4
  %68 = add i32 %67, 1
  store i32 %68, ptr %4, align 4
  br label %6, !llvm.loop !19

69:                                               ; preds = %12
  %70 = load ptr, ptr %3, align 8
  %71 = getelementptr inbounds nuw %struct._spdu_signal_value_name, ptr %70, i32 0, i32 1
  store i32 0, ptr %71, align 4
  call void @llvm.lifetime.end.p0(i64 8, ptr %3) #14
  ret void
}