; Function Attrs: null_pointer_is_valid sspstrong uwtable
define internal void @destroy_notify_signal_value_names(ptr noundef captures(none) %0) #0 {
  %2 = getelementptr inbounds nuw i8, ptr %0, i64 4
  %3 = load i32, ptr %2, align 4
  %.not20 = icmp eq i32 %3, 0
  br i1 %.not20, label %._crit_edge, label %.lr.ph

.lr.ph:                                           ; preds = %1
  %4 = getelementptr inbounds nuw i8, ptr %0, i64 24
  %5 = getelementptr inbounds nuw i8, ptr %0, i64 16
  br label %6

._crit_edge:                                      ; preds = %20, %1
  store i32 0, ptr %2, align 4
  ret void

6:                                                ; preds = %.lr.ph, %20
  %indvars.iv = phi i64 [ 0, %.lr.ph ], [ %indvars.iv.next, %20 ]
  %7 = load ptr, ptr %4, align 8
  %8 = getelementptr %struct._spdu_signal_value_name_item, ptr %7, i64 %indvars.iv, i32 2
  %9 = load ptr, ptr %8, align 8
  %.not = icmp eq ptr %9, null
  br i1 %.not, label %13, label %10

10:                                               ; preds = %6
  tail call void @g_free(ptr noundef nonnull %9)
  %11 = load ptr, ptr %4, align 8
  %12 = getelementptr %struct._spdu_signal_value_name_item, ptr %11, i64 %indvars.iv, i32 2
  store ptr null, ptr %12, align 8
  br label %13

13:                                               ; preds = %10, %6
  %14 = load ptr, ptr %5, align 8
  %15 = getelementptr %struct._val64_string, ptr %14, i64 %indvars.iv, i32 1
  %16 = load ptr, ptr %15, align 8
  %.not18 = icmp eq ptr %16, null
  br i1 %.not18, label %20, label %17

17:                                               ; preds = %13
  tail call void @g_free(ptr noundef nonnull %16)
  %18 = load ptr, ptr %5, align 8
  %19 = getelementptr %struct._val64_string, ptr %18, i64 %indvars.iv, i32 1
  store ptr null, ptr %19, align 8
  br label %20

20:                                               ; preds = %13, %17
  %indvars.iv.next = add nuw nsw i64 %indvars.iv, 1
  %21 = load i32, ptr %2, align 4
  %22 = zext i32 %21 to i64
  %23 = icmp samesign ult i64 %indvars.iv.next, %22
  br i1 %23, label %6, label %._crit_edge, !llvm.loop !29
}